target datalayout = "e-m:e-p270:32:32-p271:32:32-p272:64:64-i64:64-i128:128-f80:128-n8:16:32:64-S128"
target triple = "x86_64-pc-linux-gnu"

; Function Attrs: nounwind uwtable
define internal signext i8 @char_is_valid_escape(i8 noundef signext %0) #0 {
  %2 = alloca i8, align 1
  %3 = alloca i8, align 1
  store i8 %0, ptr %3, align 1
  %4 = load i8, ptr %3, align 1
  %5 = sext i8 %4 to i32
  switch i32 %5, label %21 [
    i32 97, label %6
    i32 98, label %7
    i32 101, label %8
    i32 102, label %9
    i32 110, label %10
    i32 114, label %11
    i32 116, label %12
    i32 118, label %13
    i32 120, label %14
    i32 117, label %15
    i32 85, label %16
    i32 39, label %17
    i32 34, label %18
    i32 92, label %19
    i32 48, label %20
  ]

6:                                                ; preds = %1
  store i8 7, ptr %2, align 1
  br label %22

7:                                                ; preds = %1
  store i8 8, ptr %2, align 1
  br label %22

8:                                                ; preds = %1
  store i8 27, ptr %2, align 1
  br label %22

9:                                                ; preds = %1
  store i8 12, ptr %2, align 1
  br label %22

10:                                               ; preds = %1
  store i8 10, ptr %2, align 1
  br label %22

11:                                               ; preds = %1
  store i8 13, ptr %2, align 1
  br label %22

12:                                               ; preds = %1
  store i8 9, ptr %2, align 1
  br label %22

13:                                               ; preds = %1
  store i8 11, ptr %2, align 1
  br label %22

14:                                               ; preds = %1
  store i8 120, ptr %2, align 1
  br label %22

15:                                               ; preds = %1
  store i8 117, ptr %2, align 1
  br label %22

16:                                               ; preds = %1
  store i8 85, ptr %2, align 1
  br label %22

17:                                               ; preds = %1
  store i8 39, ptr %2, align 1
  br label %22

18:                                               ; preds = %1
  store i8 34, ptr %2, align 1
  br label %22

19:                                               ; preds = %1
  store i8 92, ptr %2, align 1
  br label %22

20:                                               ; preds = %1
  store i8 0, ptr %2, align 1
  br label %22

21:                                               ; preds = %1
  store i8 -1, ptr %2, align 1
  br label %22

22:                                               ; preds = %21, %20, %19, %18, %17, %16, %15, %14, %13, %12, %11, %10, %9, %8, %7, %6
  %23 = load i8, ptr %2, align 1
  ret i8 %23
}